target datalayout = "e-m:e-p270:32:32-p271:32:32-p272:64:64-i64:64-i128:128-f80:128-n8:16:32:64-S128"
target triple = "x86_64-pc-linux-gnu"

%struct.ident_t = type { i32, i32, i32, i32, ptr }
%struct.gmx_sans_t = type { ptr, ptr }

@1 = private unnamed_addr constant %struct.ident_t { i32 0, i32 514, i32 0, i32 22, ptr @0 }, align 8
@_ZTISt9exception = external constant ptr
@2 = private unnamed_addr constant %struct.ident_t { i32 0, i32 66, i32 0, i32 22, ptr @0 }, align 8

; Function Attrs: mustprogress nounwind uwtable
define linkonce_odr noundef float @_ZN3gmx6squareIfEET_S1_(float noundef %0) #3 comdat {
  %2 = alloca float, align 4
  store float %0, ptr %2, align 4, !tbaa !4
  %3 = load float, ptr %2, align 4, !tbaa !4
  %4 = load float, ptr %2, align 4, !tbaa !4
  %5 = fmul float %3, %4
  ret float %5
}

; Function Attrs: inlinehint mustprogress nounwind uwtable
define linkonce_odr noundef float @_ZSt4sqrtf(float noundef %0) #10 comdat {
  %2 = alloca float, align 4
  store float %0, ptr %2, align 4, !tbaa !4
  %3 = load float, ptr %2, align 4, !tbaa !4
  %4 = call float @sqrtf(float noundef %3) #15, !tbaa !66
  ret float %4
}

; Function Attrs: inlinehint mustprogress uwtable
define internal noundef float @_ZL9distance2PKfS0_(ptr noundef %0, ptr noundef %1) #8 {
  %3 = alloca ptr, align 8
  %4 = alloca ptr, align 8
  store ptr %0, ptr %3, align 8, !tbaa !144
  store ptr %1, ptr %4, align 8, !tbaa !144
  %5 = load ptr, ptr %4, align 8, !tbaa !144
  %6 = getelementptr inbounds float, ptr %5, i64 0
  %7 = load float, ptr %6, align 4, !tbaa !4
  %8 = load ptr, ptr %3, align 8, !tbaa !144
  %9 = getelementptr inbounds float, ptr %8, i64 0
  %10 = load float, ptr %9, align 4, !tbaa !4
  %11 = fsub float %7, %10
  %12 = call noundef float @_ZN3gmx6squareIfEET_S1_(float noundef %11)
  %13 = load ptr, ptr %4, align 8, !tbaa !144
  %14 = getelementptr inbounds float, ptr %13, i64 1
  %15 = load float, ptr %14, align 4, !tbaa !4
  %16 = load ptr, ptr %3, align 8, !tbaa !144
  %17 = getelementptr inbounds float, ptr %16, i64 1
  %18 = load float, ptr %17, align 4, !tbaa !4
  %19 = fsub float %15, %18
  %20 = call noundef float @_ZN3gmx6squareIfEET_S1_(float noundef %19)
  %21 = fadd float %12, %20
  %22 = load ptr, ptr %4, align 8, !tbaa !144
  %23 = getelementptr inbounds float, ptr %22, i64 2
  %24 = load float, ptr %23, align 4, !tbaa !4
  %25 = load ptr, ptr %3, align 8, !tbaa !144
  %26 = getelementptr inbounds float, ptr %25, i64 2
  %27 = load float, ptr %26, align 4, !tbaa !4
  %28 = fsub float %24, %27
  %29 = call noundef float @_ZN3gmx6squareIfEET_S1_(float noundef %28)
  %30 = fadd float %21, %29
  ret float %30
}

; Function Attrs: alwaysinline norecurse nounwind uwtable
define internal void @_Z34calc_radial_distribution_histogramP10gmx_sans_tPA3_fS2_PKiidbbfj.omp_outlined.17(ptr noalias noundef %0, ptr noalias noundef %1, ptr noundef nonnull align 4 dereferenceable(4) %2, ptr noundef nonnull align 8 dereferenceable(8) %3, ptr noundef nonnull align 8 dereferenceable(8) %4, ptr noundef nonnull align 8 dereferenceable(8) %5, ptr noundef nonnull align 8 dereferenceable(8) %6, ptr noundef nonnull align 8 dereferenceable(8) %7) #14 personality ptr @__gxx_personality_v0 {
  %9 = alloca ptr, align 8
  %10 = alloca ptr, align 8
  %11 = alloca ptr, align 8
  %12 = alloca ptr, align 8
  %13 = alloca ptr, align 8
  %14 = alloca ptr, align 8
  %15 = alloca ptr, align 8
  %16 = alloca ptr, align 8
  %17 = alloca i32, align 4
  %18 = alloca i32, align 4
  %19 = alloca i32, align 4
  %20 = alloca i32, align 4
  %21 = alloca i32, align 4
  %22 = alloca i32, align 4
  %23 = alloca i32, align 4
  %24 = alloca i32, align 4
  %25 = alloca i32, align 4
  %26 = alloca i32, align 4
  %27 = alloca i32, align 4
  %28 = alloca ptr, align 8
  %29 = alloca i32, align 4
  %30 = alloca ptr, align 8
  store ptr %0, ptr %9, align 8, !tbaa !94
  store ptr %1, ptr %10, align 8, !tbaa !94
  store ptr %2, ptr %11, align 8, !tbaa !94
  store ptr %3, ptr %12, align 8, !tbaa !171
  store ptr %4, ptr %13, align 8, !tbaa !183
  store ptr %5, ptr %14, align 8, !tbaa !92
  store ptr %6, ptr %15, align 8, !tbaa !68
  store ptr %7, ptr %16, align 8, !tbaa !142
  %31 = load ptr, ptr %11, align 8, !tbaa !94
  %32 = load ptr, ptr %12, align 8, !tbaa !171
  %33 = load ptr, ptr %13, align 8, !tbaa !183
  %34 = load ptr, ptr %14, align 8, !tbaa !92
  %35 = load ptr, ptr %15, align 8, !tbaa !68
  %36 = load ptr, ptr %16, align 8, !tbaa !142
  call void @llvm.lifetime.start.p0(i64 4, ptr %17) #15
  call void @llvm.lifetime.start.p0(i64 4, ptr %18) #15
  %37 = invoke noundef i32 @_Z22gmx_omp_get_thread_numv()
          to label %38 unwind label %161

38:                                               ; preds = %8
  store i32 %37, ptr %17, align 4, !tbaa !66
  call void @llvm.lifetime.start.p0(i64 4, ptr %19) #15
  call void @llvm.lifetime.start.p0(i64 4, ptr %20) #15
  %39 = load i32, ptr %31, align 4, !tbaa !66
  store i32 %39, ptr %20, align 4, !tbaa !66
  call void @llvm.lifetime.start.p0(i64 4, ptr %21) #15
  %40 = load i32, ptr %20, align 4, !tbaa !66
  %41 = sub nsw i32 %40, 0
  %42 = sdiv i32 %41, 1
  %43 = sub nsw i32 %42, 1
  store i32 %43, ptr %21, align 4, !tbaa !66
  call void @llvm.lifetime.start.p0(i64 4, ptr %22) #15
  store i32 0, ptr %22, align 4, !tbaa !66
  call void @llvm.lifetime.end.p0(i64 4, ptr %22) #15
  %44 = load i32, ptr %20, align 4, !tbaa !66
  %45 = icmp slt i32 0, %44
  br i1 %45, label %46, label %158

46:                                               ; preds = %38
  call void @llvm.lifetime.start.p0(i64 4, ptr %23) #15
  store i32 0, ptr %23, align 4, !tbaa !66
  call void @llvm.lifetime.start.p0(i64 4, ptr %24) #15
  %47 = load i32, ptr %21, align 4, !tbaa !66
  store i32 %47, ptr %24, align 4, !tbaa !66
  call void @llvm.lifetime.start.p0(i64 4, ptr %25) #15
  store i32 1, ptr %25, align 4, !tbaa !66
  call void @llvm.lifetime.start.p0(i64 4, ptr %26) #15
  store i32 0, ptr %26, align 4, !tbaa !66
  call void @llvm.lifetime.start.p0(i64 4, ptr %27) #15
  %48 = load ptr, ptr %9, align 8
  %49 = load i32, ptr %48, align 4, !tbaa !66
  call void @__kmpc_for_static_init_4(ptr @1, i32 %49, i32 34, ptr %26, ptr %23, ptr %24, ptr %25, i32 1, i32 1)
  %50 = load i32, ptr %24, align 4, !tbaa !66
  %51 = load i32, ptr %21, align 4, !tbaa !66
  %52 = icmp sgt i32 %50, %51
  br i1 %52, label %53, label %55

53:                                               ; preds = %46
  %54 = load i32, ptr %21, align 4, !tbaa !66
  br label %57

55:                                               ; preds = %46
  %56 = load i32, ptr %24, align 4, !tbaa !66
  br label %57

57:                                               ; preds = %55, %53
  %58 = phi i32 [ %54, %53 ], [ %56, %55 ]
  store i32 %58, ptr %24, align 4, !tbaa !66
  %59 = load i32, ptr %23, align 4, !tbaa !66
  store i32 %59, ptr %19, align 4, !tbaa !66
  br label %60

60:                                               ; preds = %151, %57
  %61 = load i32, ptr %19, align 4, !tbaa !66
  %62 = load i32, ptr %24, align 4, !tbaa !66
  %63 = icmp sle i32 %61, %62
  br i1 %63, label %65, label %64

64:                                               ; preds = %60
  br label %154

65:                                               ; preds = %60
  %66 = load i32, ptr %19, align 4, !tbaa !66
  %67 = mul nsw i32 %66, 1
  %68 = add nsw i32 0, %67
  store i32 %68, ptr %27, align 4, !tbaa !66
  store i32 0, ptr %18, align 4, !tbaa !66
  br label %69

69:                                               ; preds = %132, %65
  %70 = load i32, ptr %18, align 4, !tbaa !66
  %71 = load i32, ptr %27, align 4, !tbaa !66
  %72 = icmp slt i32 %70, %71
  br i1 %72, label %73, label %148

73:                                               ; preds = %69
  %74 = load ptr, ptr %36, align 8, !tbaa !117
  %75 = getelementptr inbounds nuw %struct.gmx_sans_t, ptr %74, i32 0, i32 1
  %76 = load ptr, ptr %75, align 8, !tbaa !139
  %77 = load ptr, ptr %34, align 8, !tbaa !94
  %78 = load i32, ptr %27, align 4, !tbaa !66
  %79 = sext i32 %78 to i64
  %80 = getelementptr inbounds i32, ptr %77, i64 %79
  %81 = load i32, ptr %80, align 4, !tbaa !66
  %82 = sext i32 %81 to i64
  %83 = getelementptr inbounds double, ptr %76, i64 %82
  %84 = load double, ptr %83, align 8, !tbaa !70
  %85 = load ptr, ptr %36, align 8, !tbaa !117
  %86 = getelementptr inbounds nuw %struct.gmx_sans_t, ptr %85, i32 0, i32 1
  %87 = load ptr, ptr %86, align 8, !tbaa !139
  %88 = load ptr, ptr %34, align 8, !tbaa !94
  %89 = load i32, ptr %18, align 4, !tbaa !66
  %90 = sext i32 %89 to i64
  %91 = getelementptr inbounds i32, ptr %88, i64 %90
  %92 = load i32, ptr %91, align 4, !tbaa !66
  %93 = sext i32 %92 to i64
  %94 = getelementptr inbounds double, ptr %87, i64 %93
  %95 = load double, ptr %94, align 8, !tbaa !70
  %96 = load ptr, ptr %32, align 8, !tbaa !95
  %97 = load i32, ptr %17, align 4, !tbaa !66
  %98 = sext i32 %97 to i64
  %99 = getelementptr inbounds ptr, ptr %96, i64 %98
  %100 = load ptr, ptr %99, align 8, !tbaa !68
  %101 = load ptr, ptr %33, align 8, !tbaa !144
  %102 = load ptr, ptr %34, align 8, !tbaa !94
  %103 = load i32, ptr %27, align 4, !tbaa !66
  %104 = sext i32 %103 to i64
  %105 = getelementptr inbounds i32, ptr %102, i64 %104
  %106 = load i32, ptr %105, align 4, !tbaa !66
  %107 = sext i32 %106 to i64
  %108 = getelementptr inbounds [3 x float], ptr %101, i64 %107
  %109 = getelementptr inbounds [3 x float], ptr %108, i64 0, i64 0
  %110 = load ptr, ptr %33, align 8, !tbaa !144
  %111 = load ptr, ptr %34, align 8, !tbaa !94
  %112 = load i32, ptr %18, align 4, !tbaa !66
  %113 = sext i32 %112 to i64
  %114 = getelementptr inbounds i32, ptr %111, i64 %113
  %115 = load i32, ptr %114, align 4, !tbaa !66
  %116 = sext i32 %115 to i64
  %117 = getelementptr inbounds [3 x float], ptr %110, i64 %116
  %118 = getelementptr inbounds [3 x float], ptr %117, i64 0, i64 0
  %119 = invoke noundef float @_ZL9distance2PKfS0_(ptr noundef %109, ptr noundef %118)
          to label %120 unwind label %135

120:                                              ; preds = %73
  %121 = invoke noundef float @_ZSt4sqrtf(float noundef %119)
          to label %122 unwind label %135

122:                                              ; preds = %120
  %123 = fpext float %121 to double
  %124 = load double, ptr %35, align 8, !tbaa !70
  %125 = fdiv double %123, %124
  %126 = call double @llvm.floor.f64(double %125)
  %127 = fptosi double %126 to i32
  %128 = sext i32 %127 to i64
  %129 = getelementptr inbounds double, ptr %100, i64 %128
  %130 = load double, ptr %129, align 8, !tbaa !70
  %131 = call double @llvm.fmuladd.f64(double %84, double %95, double %130)
  store double %131, ptr %129, align 8, !tbaa !70
  br label %132

132:                                              ; preds = %122
  %133 = load i32, ptr %18, align 4, !tbaa !66
  %134 = add nsw i32 %133, 1
  store i32 %134, ptr %18, align 4, !tbaa !66
  br label %69, !llvm.loop !195

135:                                              ; preds = %120, %73
  %136 = landingpad { ptr, i32 }
          catch ptr @_ZTISt9exception
          catch ptr null
  %137 = extractvalue { ptr, i32 } %136, 0
  store ptr %137, ptr %28, align 8
  %138 = extractvalue { ptr, i32 } %136, 1
  store i32 %138, ptr %29, align 4
  br label %139

139:                                              ; preds = %135
  %140 = load i32, ptr %29, align 4
  %141 = call i32 @llvm.eh.typeid.for.p0(ptr @_ZTISt9exception) #15
  %142 = icmp eq i32 %140, %141
  br i1 %142, label %143, label %164

143:                                              ; preds = %139
  call void @llvm.lifetime.start.p0(i64 8, ptr %30) #15
  %144 = load ptr, ptr %28, align 8
  %145 = call ptr @__cxa_begin_catch(ptr %144) #15
  store ptr %145, ptr %30, align 8
  %146 = load ptr, ptr %30, align 8, !tbaa !185
  invoke void @_ZN3gmx28processExceptionAsFatalErrorERKSt9exception(ptr noundef nonnull align 8 dereferenceable(8) %146) #21
          to label %147 unwind label %161

147:                                              ; preds = %143
  unreachable

148:                                              ; preds = %69
  br label %149

149:                                              ; preds = %148
  br label %150

150:                                              ; preds = %149
  br label %151

151:                                              ; preds = %150
  %152 = load i32, ptr %19, align 4, !tbaa !66
  %153 = add nsw i32 %152, 1
  store i32 %153, ptr %19, align 4, !tbaa !66
  br label %60

154:                                              ; preds = %64
  br label %155

155:                                              ; preds = %154
  %156 = load ptr, ptr %9, align 8
  %157 = load i32, ptr %156, align 4, !tbaa !66
  call void @__kmpc_for_static_fini(ptr @1, i32 %157)
  call void @llvm.lifetime.end.p0(i64 4, ptr %27) #15
  call void @llvm.lifetime.end.p0(i64 4, ptr %26) #15
  call void @llvm.lifetime.end.p0(i64 4, ptr %25) #15
  call void @llvm.lifetime.end.p0(i64 4, ptr %24) #15
  call void @llvm.lifetime.end.p0(i64 4, ptr %23) #15
  br label %158

158:                                              ; preds = %155, %38
  call void @llvm.lifetime.end.p0(i64 4, ptr %21) #15
  call void @llvm.lifetime.end.p0(i64 4, ptr %20) #15
  call void @llvm.lifetime.end.p0(i64 4, ptr %19) #15
  %159 = load ptr, ptr %9, align 8
  %160 = load i32, ptr %159, align 4, !tbaa !66
  call void @__kmpc_barrier(ptr @2, i32 %160)
  call void @llvm.lifetime.end.p0(i64 4, ptr %18) #15
  call void @llvm.lifetime.end.p0(i64 4, ptr %17) #15
  ret void

161:                                              ; preds = %143, %8
  %162 = landingpad { ptr, i32 }
          catch ptr null
  %163 = extractvalue { ptr, i32 } %162, 0
  call void @__clang_call_terminate(ptr %163) #22
  unreachable

164:                                              ; preds = %139
  %165 = load ptr, ptr %28, align 8
  call void @__clang_call_terminate(ptr %165) #22
  unreachable
}