; Function Attrs: alwaysinline norecurse nounwind uwtable
define internal void @_Z34calc_radial_distribution_histogramP10gmx_sans_tPA3_fS2_PKiidbbfj.omp_outlined.17(ptr noalias noundef readonly captures(none) %0, ptr noalias readnone captures(none) %1, ptr noundef nonnull readonly align 4 captures(none) dereferenceable(4) %2, ptr noundef nonnull readonly align 8 captures(none) dereferenceable(8) %3, ptr noundef nonnull readonly align 8 captures(none) dereferenceable(8) %4, ptr noundef nonnull readonly align 8 captures(none) dereferenceable(8) %5, ptr noundef nonnull readonly align 8 captures(none) dereferenceable(8) %6, ptr noundef nonnull readonly align 8 captures(none) dereferenceable(8) %7) #15 personality ptr @__gxx_personality_v0 {
  %9 = alloca i32, align 4
  %10 = alloca i32, align 4
  %11 = alloca i32, align 4
  %12 = alloca i32, align 4
  %13 = invoke noundef i32 @_Z22gmx_omp_get_thread_numv()
          to label %14 unwind label %75

14:                                               ; preds = %8
  %15 = load i32, ptr %2, align 4, !tbaa !37
  %16 = icmp sgt i32 %15, 0
  %.pre = load i32, ptr %0, align 4, !tbaa !37
  br i1 %16, label %17, label %74

17:                                               ; preds = %14
  %18 = add nsw i32 %15, -1
  call void @llvm.lifetime.start.p0(i64 4, ptr nonnull %9) #16
  store i32 0, ptr %9, align 4, !tbaa !37
  call void @llvm.lifetime.start.p0(i64 4, ptr nonnull %10) #16
  store i32 %18, ptr %10, align 4, !tbaa !37
  call void @llvm.lifetime.start.p0(i64 4, ptr nonnull %11) #16
  store i32 1, ptr %11, align 4, !tbaa !37
  call void @llvm.lifetime.start.p0(i64 4, ptr nonnull %12) #16
  store i32 0, ptr %12, align 4, !tbaa !37
  call void @__kmpc_for_static_init_4(ptr nonnull @1, i32 %.pre, i32 34, ptr nonnull %12, ptr nonnull %9, ptr nonnull %10, ptr nonnull %11, i32 1, i32 1)
  %19 = load i32, ptr %10, align 4, !tbaa !37
  %20 = call i32 @llvm.smin.i32(i32 %19, i32 %18)
  store i32 %20, ptr %10, align 4, !tbaa !37
  %21 = load i32, ptr %9, align 4, !tbaa !37
  %.not30 = icmp sgt i32 %21, %20
  br i1 %.not30, label %._crit_edge32, label %.preheader.lr.ph

.preheader.lr.ph:                                 ; preds = %17
  %22 = load ptr, ptr %7, align 8
  %23 = getelementptr inbounds nuw i8, ptr %22, i64 8
  %24 = load ptr, ptr %5, align 8
  %25 = load ptr, ptr %3, align 8
  %26 = sext i32 %13 to i64
  %27 = getelementptr inbounds ptr, ptr %25, i64 %26
  %28 = load ptr, ptr %4, align 8
  br label %.preheader

.preheader:                                       ; preds = %.preheader.lr.ph, %._crit_edge
  %.02831 = phi i32 [ %21, %.preheader.lr.ph ], [ %73, %._crit_edge ]
  %29 = icmp sgt i32 %.02831, 0
  br i1 %29, label %.lr.ph, label %._crit_edge

.lr.ph:                                           ; preds = %.preheader
  %30 = load ptr, ptr %23, align 8, !tbaa !66
  %31 = zext nneg i32 %.02831 to i64
  %32 = getelementptr inbounds nuw i32, ptr %24, i64 %31
  %33 = load i32, ptr %32, align 4, !tbaa !37
  %34 = sext i32 %33 to i64
  %35 = getelementptr inbounds double, ptr %30, i64 %34
  %36 = load ptr, ptr %27, align 8, !tbaa !29
  %37 = getelementptr inbounds [3 x float], ptr %28, i64 %34
  %38 = load float, ptr %37, align 4, !tbaa !81
  %39 = getelementptr inbounds nuw i8, ptr %37, i64 4
  %40 = load float, ptr %39, align 4, !tbaa !81
  %41 = getelementptr inbounds nuw i8, ptr %37, i64 8
  %42 = load float, ptr %41, align 4, !tbaa !81
  br label %43

43:                                               ; preds = %.lr.ph, %43
  %indvars.iv = phi i64 [ 0, %.lr.ph ], [ %indvars.iv.next, %43 ]
  %44 = load double, ptr %35, align 8, !tbaa !18
  %45 = getelementptr inbounds nuw i32, ptr %24, i64 %indvars.iv
  %46 = load i32, ptr %45, align 4, !tbaa !37
  %47 = sext i32 %46 to i64
  %48 = getelementptr inbounds double, ptr %30, i64 %47
  %49 = load double, ptr %48, align 8, !tbaa !18
  %50 = getelementptr inbounds [3 x float], ptr %28, i64 %47
  %51 = load float, ptr %50, align 4, !tbaa !81
  %52 = fsub float %51, %38
  %53 = fmul float %52, %52
  %54 = getelementptr inbounds nuw i8, ptr %50, i64 4
  %55 = load float, ptr %54, align 4, !tbaa !81
  %56 = fsub float %55, %40
  %57 = fmul float %56, %56
  %58 = fadd float %53, %57
  %59 = getelementptr inbounds nuw i8, ptr %50, i64 8
  %60 = load float, ptr %59, align 4, !tbaa !81
  %61 = fsub float %60, %42
  %62 = fmul float %61, %61
  %63 = fadd float %58, %62
  %sqrt = call float @llvm.sqrt.f32(float %63)
  %64 = fpext float %sqrt to double
  %65 = load double, ptr %6, align 8, !tbaa !18
  %66 = fdiv double %64, %65
  %67 = call double @llvm.floor.f64(double %66)
  %68 = fptosi double %67 to i32
  %69 = sext i32 %68 to i64
  %70 = getelementptr inbounds double, ptr %36, i64 %69
  %71 = load double, ptr %70, align 8, !tbaa !18
  %72 = call double @llvm.fmuladd.f64(double %44, double %49, double %71)
  store double %72, ptr %70, align 8, !tbaa !18
  %indvars.iv.next = add nuw nsw i64 %indvars.iv, 1
  %exitcond.not = icmp eq i64 %indvars.iv.next, %31
  br i1 %exitcond.not, label %._crit_edge, label %43, !llvm.loop !100

._crit_edge:                                      ; preds = %43, %.preheader
  %73 = add i32 %.02831, 1
  %exitcond34.not = icmp eq i32 %.02831, %20
  br i1 %exitcond34.not, label %._crit_edge32, label %.preheader

._crit_edge32:                                    ; preds = %._crit_edge, %17
  call void @__kmpc_for_static_fini(ptr nonnull @1, i32 %.pre)
  call void @llvm.lifetime.end.p0(i64 4, ptr nonnull %12) #16
  call void @llvm.lifetime.end.p0(i64 4, ptr nonnull %11) #16
  call void @llvm.lifetime.end.p0(i64 4, ptr nonnull %10) #16
  call void @llvm.lifetime.end.p0(i64 4, ptr nonnull %9) #16
  br label %74

74:                                               ; preds = %._crit_edge32, %14
  call void @__kmpc_barrier(ptr nonnull @2, i32 %.pre)
  ret void

75:                                               ; preds = %8
  %76 = landingpad { ptr, i32 }
          catch ptr null
  %77 = extractvalue { ptr, i32 } %76, 0
  tail call void @__clang_call_terminate(ptr %77) #29
  unreachable
}